Certificate:
    Data:
        Version: 3 (0x2)
        Serial Number: 1 (0x1)
        Signature Algorithm: sha1WithRSAEncryption
        Issuer: C=US, ST=NJ, L=Madison, O=RForge.net, CN=rforge.net/emailAddress=admin@rforge.net
        Validity
            Not Before: Sep  8 19:16:36 2012 GMT
            Not After : Sep  8 19:16:36 2013 GMT
        Subject: C=US, ST=NJ, O=RForge.net, CN=Simon Urbanek/emailAddress=simon.urbanek@r-project.org
        Subject Public Key Info:
            Public Key Algorithm: rsaEncryption
            RSA Public Key: (2048 bit)
                Modulus (2048 bit):
                    00:d4:98:cf:c0:66:1c:15:00:10:16:d5:3b:94:b4:
                    02:c3:bb:c2:37:1b:97:e8:64:ca:0d:1d:ed:13:27:
                    76:d3:ba:4a:91:79:9b:db:5c:49:33:ac:e0:74:e2:
                    f2:f4:9b:59:80:3e:e5:a6:a8:dd:18:04:96:cd:7c:
                    8e:44:39:8a:e6:1a:08:6b:3b:89:2b:24:5f:68:c9:
                    7e:a4:63:ae:a3:f0:ca:46:e0:93:49:49:74:55:2b:
                    1d:ca:5a:9f:20:d9:23:08:d1:cc:8c:d6:47:ca:7a:
                    35:ee:1d:c5:f2:c1:3c:2e:66:9e:7e:c3:03:40:b9:
                    15:82:e6:16:e4:0c:64:68:06:2b:c8:ed:7a:bc:e9:
                    78:88:fb:a3:92:e0:1f:4a:8a:07:59:bb:9e:ad:1d:
                    7d:2d:cd:16:3b:23:5d:01:1b:04:c4:dd:f0:68:00:
                    c2:49:d6:8e:3b:5a:65:07:a8:53:3c:2b:9b:07:17:
                    2f:08:6e:f1:76:3c:25:13:0d:db:4e:c3:7f:ce:4c:
                    d8:92:98:ef:a6:c5:a3:87:d6:d4:10:7a:07:2a:92:
                    cb:94:9c:e1:cd:df:3a:a1:00:d5:5f:9f:d3:e4:46:
                    91:e6:08:db:21:03:ce:cc:88:25:08:f5:11:2a:40:
                    e9:4f:c7:11:78:9a:9e:ca:c1:a6:7e:ef:12:f5:2d:
                    f7:39
                Exponent: 65537 (0x10001)
        X509v3 extensions:
            X509v3 Basic Constraints: 
                CA:FALSE
            Netscape Cert Type: 
                SSL Client, S/MIME, Object Signing
            X509v3 Subject Key Identifier: 
                27:47:CC:BA:AA:BB:E9:BA:24:E1:49:22:B7:B9:79:3E:3C:C0:1C:AF
            X509v3 Authority Key Identifier: 
                keyid:CA:5C:51:D0:CF:8A:28:88:53:B2:D0:25:5C:89:D0:DD:1A:0E:4B:75

    Signature Algorithm: sha1WithRSAEncryption
        5e:4d:51:4f:f9:db:2c:e8:73:02:7a:ad:c2:13:6c:62:58:19:
        5a:6d:82:9f:03:a7:b0:13:0e:47:66:28:00:f2:71:cf:e4:2a:
        cc:40:d4:ef:aa:da:6f:44:9b:a6:3c:47:f4:b6:2e:bc:03:9a:
        d1:9d:a6:af:4c:8e:24:9c:14:ed:ac:b6:a6:45:fe:d9:cd:61:
        81:91:1f:39:eb:47:34:6f:d5:a4:14:71:e9:5e:8f:01:df:ce:
        e1:ec:b3:71:8f:bb:79:76:86:69:92:60:96:9b:e6:03:33:70:
        df:d3:c9:fe:15:9f:c0:60:1c:34:27:38:2c:60:bc:5e:07:2d:
        f2:97:62:fc:d1:48:86:fc:b0:28:a3:96:59:8a:ab:67:23:52:
        5e:1a:64:f5:75:b3:94:24:71:ab:d7:cb:7b:e2:da:36:f9:3c:
        3d:97:28:c0:f6:dc:06:79:9a:b7:3e:8c:8e:c8:21:29:a2:fb:
        8f:50:e8:b5:c9:0a:66:91:9a:28:1f:99:6f:83:e9:98:7e:18:
        e8:58:1e:b0:44:08:f3:0a:c3:c5:ad:d0:69:95:5c:1d:bf:e1:
        f7:41:81:bf:7f:c8:86:50:a7:81:fd:ff:a2:74:91:cf:c8:6c:
        67:ca:f9:8b:25:ea:82:50:02:70:e2:6d:39:d3:29:07:1a:e0:
        21:2b:42:ae
-----BEGIN CERTIFICATE-----
MIIDxTCCAq2gAwIBAgIBATANBgkqhkiG9w0BAQUFADB3MQswCQYDVQQGEwJVUzEL
MAkGA1UECBMCTkoxEDAOBgNVBAcTB01hZGlzb24xEzARBgNVBAoTClJGb3JnZS5u
ZXQxEzARBgNVBAMTCnJmb3JnZS5uZXQxHzAdBgkqhkiG9w0BCQEWEGFkbWluQHJm
b3JnZS5uZXQwHhcNMTIwOTA4MTkxNjM2WhcNMTMwOTA4MTkxNjM2WjBzMQswCQYD
VQQGEwJVUzELMAkGA1UECBMCTkoxEzARBgNVBAoTClJGb3JnZS5uZXQxFjAUBgNV
BAMTDVNpbW9uIFVyYmFuZWsxKjAoBgkqhkiG9w0BCQEWG3NpbW9uLnVyYmFuZWtA
ci1wcm9qZWN0Lm9yZzCCASIwDQYJKoZIhvcNAQEBBQADggEPADCCAQoCggEBANSY
z8BmHBUAEBbVO5S0AsO7wjcbl+hkyg0d7RMndtO6SpF5m9tcSTOs4HTi8vSbWYA+
5aao3RgEls18jkQ5iuYaCGs7iSskX2jJfqRjrqPwykbgk0lJdFUrHcpanyDZIwjR
zIzWR8p6Ne4dxfLBPC5mnn7DA0C5FYLmFuQMZGgGK8jterzpeIj7o5LgH0qKB1m7
nq0dfS3NFjsjXQEbBMTd8GgAwknWjjtaZQeoUzwrmwcXLwhu8XY8JRMN207Df85M
2JKY76bFo4fW1BB6ByqSy5Sc4c3fOqEA1V+f0+RGkeYI2yEDzsyIJQj1ESpA6U/H
EXiansrBpn7vEvUt9zkCAwEAAaNgMF4wCQYDVR0TBAIwADARBglghkgBhvhCAQEE
BAMCBLAwHQYDVR0OBBYEFCdHzLqqu+m6JOFJIre5eT48wByvMB8GA1UdIwQYMBaA
FMpcUdDPiiiIU7LQJVyJ0N0aDkt1MA0GCSqGSIb3DQEBBQUAA4IBAQBeTVFP+dss
6HMCeq3CE2xiWBlabYKfA6ewEw5HZigA8nHP5CrMQNTvqtpvRJumPEf0ti68A5rR
naavTI4knBTtrLamRf7ZzWGBkR8560c0b9WkFHHpXo8B387h7LNxj7t5doZpkmCW
m+YDM3Df08n+FZ/AYBw0JzgsYLxeBy3yl2L80UiG/LAoo5ZZiqtnI1JeGmT1dbOU
JHGr18t74to2+Tw9lyjA9twGeZq3PoyOyCEpovuPUOi1yQpmkZooH5lvg+mYfhjo
WB6wRAjzCsPFrdBplVwdv+H3QYG/f8iGUKeB/f+idJHPyGxnyvmLJeqCUAJw4m05
0ykHGuAhK0Ku
-----END CERTIFICATE-----
